target datalayout = "e-m:e-p270:32:32-p271:32:32-p272:64:64-i64:64-i128:128-f80:128-n8:16:32:64-S128"
target triple = "x86_64-pc-linux-gnu"

; Function Attrs: nounwind uwtable
define float @stbtt__cuberoot(float noundef %0) #0 {
  %2 = alloca float, align 4
  %3 = alloca float, align 4
  store float %0, ptr %3, align 4, !tbaa !67
  %4 = load float, ptr %3, align 4, !tbaa !67
  %5 = fcmp olt float %4, 0.000000e+00
  br i1 %5, label %6, label %13

6:                                                ; preds = %1
  %7 = load float, ptr %3, align 4, !tbaa !67
  %8 = fneg float %7
  %9 = fpext float %8 to double
  %10 = call double @pow(double noundef %9, double noundef 0x3FD5555560000000) #8, !tbaa !14
  %11 = fptrunc double %10 to float
  %12 = fneg float %11
  store float %12, ptr %2, align 4
  br label %18

13:                                               ; preds = %1
  %14 = load float, ptr %3, align 4, !tbaa !67
  %15 = fpext float %14 to double
  %16 = call double @pow(double noundef %15, double noundef 0x3FD5555560000000) #8, !tbaa !14
  %17 = fptrunc double %16 to float
  store float %17, ptr %2, align 4
  br label %18

18:                                               ; preds = %13, %6
  %19 = load float, ptr %2, align 4
  ret float %19
}