; Function Attrs: mustprogress nofree nounwind willreturn memory(write) uwtable
define float @stbtt__cuberoot(float noundef %0) local_unnamed_addr #28 {
  %2 = fcmp olt float %0, 0.000000e+00
  br i1 %2, label %3, label %9

3:                                                ; preds = %1
  %4 = fneg float %0
  %5 = fpext float %4 to double
  %6 = tail call double @pow(double noundef %5, double noundef 0x3FD5555560000000) #32, !tbaa !17
  %7 = fptrunc double %6 to float
  %8 = fneg float %7
  br label %13

9:                                                ; preds = %1
  %10 = fpext float %0 to double
  %11 = tail call double @pow(double noundef %10, double noundef 0x3FD5555560000000) #32, !tbaa !17
  %12 = fptrunc double %11 to float
  br label %13

13:                                               ; preds = %9, %3
  %.0 = phi float [ %8, %3 ], [ %12, %9 ]
  ret float %.0
}